(dp0
S'directors'
p1
(dp2
S'Joel Coen'
p3
I186
sS'Rob Cohen'
p4
I187
sS'Tim Burton'
p5
I188
sS'Wes Craven'
p6
I189
sS'Peter Farrelly'
p7
I190
sS'Steven Spielberg'
p8
I191
sS'Woody Allen'
p9
I192
sS'Michael Bay'
p10
I193
sS'John Carpenter'
p11
I194
sS'Richard Donner'
p12
I203
sS'David Fincher'
p13
I196
sS'Brian De Palma'
p14
I197
sS'Gore Verbinski'
p15
I198
sS'Francis Ford Coppola'
p16
I199
sS'Ethan Coen'
p17
I200
sS'Gus Van Sant'
p18
I202
sS'M. Night Shyamalan'
p19
I195
sS'Steven Soderbergh'
p20
I204
sS'Barry Sonnenfeld'
p21
I205
sS'Spike Lee'
p22
I206
sS'Robert Zemeckis'
p23
I207
sS'Don Bluth'
p24
I208
sS'Quentin Tarantino'
p25
I209
sS'Renny Harlin'
p26
I210
sS'Brett Ratner'
p27
I211
sS'Bobby Farrelly'
p28
I212
sS'Ron Howard'
p29
I213
sS'Michael Mann'
p30
I214
sS'Christopher Nolan'
p31
I215
sS'Clint Eastwood'
p32
I216
sS'Antoine Fuqua'
p33
I201
sS'Roland Emmerich'
p34
I223
sS'Ridley Scott'
p35
I218
sS'Martin Scorsese'
p36
I217
sS'Robert Rodriguez'
p37
I219
sS'Dennis Dugan'
p38
I221
sS'Richard Linklater'
p39
I222
sS'Shawn Levy'
p40
I220
sS'Sam Raimi'
p41
I224
sS'Tony Scott'
p42
I225
sS'Ivan Reitman'
p43
I226
sS'Peter Jackson'
p44
I227
sS'Paul W.S. Anderson'
p45
I228
sS'Joel Schumacher'
p46
I229
sS'Oliver Stone'
p47
I230
sS'Chris Columbus'
p48
I231
ssS'writers'
p49
(dp50
S'Stephen King'
p51
I232
sS'Thomas Lennon'
p52
I233
sS'Terry Rossio'
p53
I234
sS'Roberto Orci'
p54
I235
sS'Wes Craven'
p55
I236
sS'Ronald Shusett'
p56
I237
sS'Steven Zaillian'
p57
I238
sS'Robert Mark Kamen'
p58
I239
sS'George Lucas'
p59
I240
sS'Akiva Goldsman'
p60
I241
sS'John Carpenter'
p61
I242
sS'Ted Elliott'
p62
I243
sS'Sylvester Stallone'
p63
I244
sS'Jim Thomas'
p64
I245
sS"Dan O'Bannon"
p65
I246
sS'Fran Walsh'
p66
I247
sS'Tony Gilroy'
p67
I248
sS'Stan Lee'
p68
I249
sS'Mario Puzo'
p69
I250
sS'Brian Helgeland'
p70
I251
sS'Ian Fleming'
p71
I252
sS'John Thomas'
p72
I270
sS'Andrew Stanton'
p73
I254
sS'Shane Black'
p74
I255
sS'Steven E. de Souza'
p75
I256
sS'Lana Wachowski'
p76
I257
sS'Andy Wachowski'
p77
I258
sS'Quentin Tarantino'
p78
I259
sS'Stuart Beattie'
p79
I260
sS'Alex Kurtzman'
p80
I264
sS'Ronald Bass'
p81
I262
sS'John Logan'
p82
I263
sS'Robert Ben Garant'
p83
I261
sS'Oliver Stone'
p84
I265
sS'Harold Ramis'
p85
I266
sS'David Koepp'
p86
I267
sS'Peter Jackson'
p87
I268
sS'Guillermo del Toro'
p88
I269
sS'John Hughes'
p89
I253
sS'Gene Roddenberry'
p90
I271
sS'Luc Besson'
p91
I272
sS'David S. Goyer'
p92
I273
ssS'top_actors'
p93
(dp94
S'Donald Sutherland'
p95
I5
sS'Cameron Diaz'
p96
I6
sS'Helena Bonham Carter'
p97
I7
sS'Alfred Molina'
p98
I8
sS'Russell Crowe'
p99
I9
sS'Ed Harris'
p100
I11
sS'John Lithgow'
p101
I12
sS'Liam Neeson'
p102
I13
sS'Willem Dafoe'
p103
I14
sS'Peter Sarsgaard'
p104
I15
sS'Angelina Jolie'
p105
I16
sS'Matt Damon'
p106
I17
sS'Danny Glover'
p107
I161
sS'Tom Cruise'
p108
I98
sS'Julianne Moore'
p109
I20
sS'Oliver Platt'
p110
I21
sS'Kurt Russell'
p111
I22
sS'Tommy Lee Jones'
p112
I23
sS'Bradley Cooper'
p113
I25
sS'Brendan Fraser'
p114
I26
sS'Jack Black'
p115
I27
sS'James Franco'
p116
I28
sS'Eddie Murphy'
p117
I29
sS'Susan Sarandon'
p118
I30
sS'Philip Seymour Hoffman'
p119
I31
sS'Steve Buscemi'
p120
I32
sS'Forest Whitaker'
p121
I33
sS'Catherine Keener'
p122
I35
sS'John Cusack'
p123
I163
sS'Tom Wilkinson'
p124
I36
sS'Kevin Costner'
p125
I37
sS'Vin Diesel'
p126
I38
sS'Christopher Plummer'
p127
I39
sS'Christopher Walken'
p128
I40
sS'Paul Giamatti'
p129
I41
sS'Matthew McConaughey'
p130
I78
sS'Natalie Portman'
p131
I43
sS'Famke Janssen'
p132
I44
sS'Christopher Lloyd'
p133
I45
sS'Edward Norton'
p134
I46
sS'Danny DeVito'
p135
I47
sS'Tim Robbins'
p136
I48
sS'Jonah Hill'
p137
I49
sS'Brad Pitt'
p138
I131
sS'Steve Carell'
p139
I50
sS'Paul Bettany'
p140
I51
sS'Nicolas Cage'
p141
I52
sS'Will Smith'
p142
I53
sS'David Morse'
p143
I54
sS'Bruce Willis'
p144
I55
sS'Terrence Howard'
p145
I56
sS'Vince Vaughn'
p146
I165
sS'Sean Penn'
p147
I58
sS'Mark Ruffalo'
p148
I59
sS'Jennifer Aniston'
p149
I60
sS'John Leguizamo'
p150
I61
sS'Joan Cusack'
p151
I62
sS'Arnold Schwarzenegger'
p152
I63
sS'Christopher McDonald'
p153
I64
sS'John Goodman'
p154
I134
sS'Sylvester Stallone'
p155
I105
sS'Burt Reynolds'
p156
I68
sS'Guy Pearce'
p157
I69
sS'Mark Wahlberg'
p158
I70
sS'Michelle Pfeiffer'
p159
I71
sS'Anthony Hopkins'
p160
I72
sS'Paul Walker'
p161
I133
sS'Charlize Theron'
p162
I73
sS'Rosario Dawson'
p163
I74
sS'Jeff Bridges'
p164
I75
sS'Charlie Sheen'
p165
I77
sS'Hank Azaria'
p166
I10
sS'Colin Farrell'
p167
I79
sS'Bill Nighy'
p168
I80
sS'Martin Lawrence'
p169
I81
sS'Jennifer Connelly'
p170
I82
sS'John C. Reilly'
p171
I83
sS'Kirsten Dunst'
p172
I84
sS'Harrison Ford'
p173
I85
sS'Dennis Quaid'
p174
I140
sS'Alec Baldwin'
p175
I87
sS'Gene Hackman'
p176
I141
sS'Mike Myers'
p177
I89
sS'Kiefer Sutherland'
p178
I90
sS'Jason Statham'
p179
I91
sS'Dustin Hoffman'
p180
I92
sS'Justin Long'
p181
I93
sS'Leonardo DiCaprio'
p182
I94
sS'Ewan McGregor'
p183
I95
sS'Robert Downey Jr.'
p184
I96
sS'Ben Affleck'
p185
I97
sS'Ren\xc3\xa9e Zellweger'
p186
I19
sS'Samuel L. Jackson'
p187
I99
sS'Sandra Bullock'
p188
I143
sS'Robert Duvall'
p189
I100
sS'Billy Bob Thornton'
p190
I102
sS'Jack Nicholson'
p191
I103
sS'Pierce Brosnan'
p192
I104
sS'Michael Douglas'
p193
I66
sS'Patrick Stewart'
p194
I145
sS'Jada Pinkett Smith'
p195
I107
sS'Cary Elwes'
p196
I174
sS'Robert De Niro'
p197
I176
sS'Jake Gyllenhaal'
p198
I108
sS'Cate Blanchett'
p199
I109
sS'Jim Broadbent'
p200
I110
sS'Joseph Gordon-Levitt'
p201
I111
sS'Kevin Bacon'
p202
I112
sS'Chris Rock'
p203
I113
sS'Morgan Freeman'
p204
I114
sS'Ryan Reynolds'
p205
I115
sS'George Clooney'
p206
I116
sS'Gary Oldman'
p207
I118
sS'Keanu Reeves'
p208
I119
sS'Milla Jovovich'
p209
I120
sS'Dennis Hopper'
p210
I76
sS'Denzel Washington'
p211
I122
sS'Josh Brolin'
p212
I101
sS'Michael Caine'
p213
I124
sS'Richard Gere'
p214
I125
sS'Antonio Banderas'
p215
I179
sS'Don Cheadle'
p216
I67
sS'Alan Arkin'
p217
I128
sS'Nicole Kidman'
p218
I185
sS'William Shatner'
p219
I129
sS'Bill Pullman'
p220
I130
sS'Robin Williams'
p221
I42
sS'Jessica Biel'
p222
I132
sS'Channing Tatum'
p223
I34
sS'Bill Murray'
p224
I65
sS'Eva Mendes'
p225
I135
sS'Jamie Foxx'
p226
I136
sS'Ice Cube'
p227
I137
sS'Jessica Alba'
p228
I138
sS'Anne Hathaway'
p229
I139
sS'Dwayne Johnson'
p230
I86
sS'Mel Gibson'
p231
I88
sS'Al Pacino'
p232
I142
sS'Drew Barrymore'
p233
I24
sS'Gerard Butler'
p234
I144
sS'Kate Beckinsale'
p235
I106
sS'Ben Kingsley'
p236
I146
sS'Jim Carrey'
p237
I147
sS'Kevin Spacey'
p238
I148
sS'Sean Bean'
p239
I149
sS'Owen Wilson'
p240
I150
sS'Joaquin Phoenix'
p241
I151
sS'Val Kilmer'
p242
I152
sS'Johnny Depp'
p243
I127
sS'Julia Roberts'
p244
I153
sS'Wesley Snipes'
p245
I154
sS'Clive Owen'
p246
I155
sS'John Travolta'
p247
I156
sS'Woody Harrelson'
p248
I157
sS'Jackie Chan'
p249
I158
sS'Ashton Kutcher'
p250
I159
sS'Jon Voight'
p251
I160
sS'Will Ferrell'
p252
I121
sS'Ben Stiller'
p253
I162
sS'Halle Berry'
p254
I117
sS'John Hurt'
p255
I164
sS'Sam Neill'
p256
I57
sS'Dan Aykroyd'
p257
I166
sS'Christian Bale'
p258
I167
sS'Meryl Streep'
p259
I168
sS'Jennifer Lopez'
p260
I169
sS'Daniel Craig'
p261
I170
sS'Tom Hanks'
p262
I171
sS'Sigourney Weaver'
p263
I172
sS'Amy Adams'
p264
I173
sS'Rachel Weisz'
p265
I123
sS'Gwyneth Paltrow'
p266
I175
sS'Kristen Stewart'
p267
I18
sS'Adam Sandler'
p268
I177
sS'Ethan Hawke'
p269
I178
sS'Ralph Fiennes'
p270
I126
sS'Hugh Jackman'
p271
I180
sS'Sean Connery'
p272
I181
sS'Jude Law'
p273
I182
sS'Aaron Eckhart'
p274
I184
sS'Seth Rogen'
p275
I183
ssS'genres'
p276
(dp277
S'Mystery'
p278
I274
sS'Drama'
p279
I283
sS'Comedy'
p280
I290
sS'Sci-Fi'
p281
I278
sS'Family'
p282
I279
sS'Horror'
p283
I280
sS'Thriller'
p284
I293
sS'Crime'
p285
I282
sS'Romance'
p286
I275
sS'Fantasy'
p287
I284
sS'Musical'
p288
I292
sS'Animation'
p289
I285
sS'Music'
p290
I289
sS'Adventure'
p291
I287
sS'Action'
p292
I288
sS'Western'
p293
I294
sS'Sport'
p294
I277
sS'Documentary'
p295
I291
sS'War'
p296
I286
sS'Biography'
p297
I281
sS'History'
p298
I276
ssS'MPAA_ratings'
p299
(dp300
S''
p301
I1
sS'NC-17'
p302
I5
sS'R'
p303
I4
sS'PG'
p304
I2
sS'PG-13'
p305
I3
ss.